; Function Attrs: nofree norecurse nosync nounwind memory(read, inaccessiblemem: none) uwtable
define dso_local ptr @dsm_find_mapping(i32 noundef %0) local_unnamed_addr #5 {
  %2 = load ptr, ptr getelementptr inbounds nuw (i8, ptr @dsm_segment_list, i64 8), align 8
  %.not = icmp eq ptr %2, null
  %.not91013 = icmp eq ptr %2, @dsm_segment_list
  %.not910 = or i1 %.not, %.not91013
  br i1 %.not910, label %select.unfold._crit_edge, label %.lr.ph

.lr.ph:                                           ; preds = %1, %select.unfold
  %.sroa.0.011 = phi ptr [ %7, %select.unfold ], [ %2, %1 ]
  %3 = getelementptr inbounds nuw i8, ptr %.sroa.0.011, i64 24
  %4 = load i32, ptr %3, align 8
  %5 = icmp eq i32 %4, %0
  br i1 %5, label %select.unfold._crit_edge, label %select.unfold

select.unfold:                                    ; preds = %.lr.ph
  %6 = getelementptr inbounds nuw i8, ptr %.sroa.0.011, i64 8
  %7 = load ptr, ptr %6, align 8
  %.not9 = icmp eq ptr %7, @dsm_segment_list
  br i1 %.not9, label %select.unfold._crit_edge, label %.lr.ph, !llvm.loop !17

select.unfold._crit_edge:                         ; preds = %.lr.ph, %select.unfold, %1
  %.0 = phi ptr [ null, %1 ], [ null, %select.unfold ], [ %.sroa.0.011, %.lr.ph ]
  ret ptr %.0
}